; Function Attrs: inlinehint mustprogress nounwind optsize uwtable
define internal noundef zeroext i1 @_ZZN8nanobind22implicitly_convertibleINS_8iterableESt6vectorISt10shared_ptrIZL38nanobind_init_test_stl_bind_vector_extRNS_7module_EE2ElESaIS7_EEEEvvENUlP11_typeobjectP7_objectPNS_6detail12cleanup_listEE_8__invokeESB_SD_SG_(ptr readnone captures(none) %0, ptr noundef %1, ptr noundef %2) #15 align 2 personality ptr @__gxx_personality_v0 {
  %4 = alloca %"struct.nanobind::detail::type_caster.124", align 8
  call void @llvm.lifetime.start.p0(i64 8, ptr nonnull %4) #26
  store ptr null, ptr %4, align 8
  %5 = call noundef zeroext i1 @_ZN8nanobind6detail11type_casterINS_8iterableEiE11from_pythonENS_6handleEhPNS0_12cleanup_listE(ptr noundef nonnull align 8 dereferenceable(8) %4, ptr %1, i8 noundef zeroext 1, ptr noundef %2) #27
  %6 = call noundef nonnull align 8 dereferenceable(8) ptr @_ZNKR8nanobind6handle7dec_refEv(ptr noundef nonnull align 8 dereferenceable(8) %4) #27
  call void @llvm.lifetime.end.p0(i64 8, ptr nonnull %4) #26
  ret i1 %5
}